target datalayout = "e-m:e-p270:32:32-p271:32:32-p272:64:64-i64:64-i128:128-f80:128-n8:16:32:64-S128"
target triple = "x86_64-pc-linux-gnu"

%struct._smb2_seskey_field_t = type { ptr, i32, ptr, i32, ptr, i32, ptr, i32 }

@.str.2109 = private unnamed_addr constant [51 x i8] c"Session ID must be 8 bytes long and in hexadecimal\00", align 1
@.str.2110 = private unnamed_addr constant [89 x i8] c"Decryption requires either the Session Key or at least one of the client-server AES keys\00", align 1
@.str.2111 = private unnamed_addr constant [71 x i8] c"Session Key must be a hexadecimal string representing at most 16 bytes\00", align 1
@.str.2112 = private unnamed_addr constant [74 x i8] c"Server-to-Client key must be a hexadecimal string representing 16 or 16*2\00", align 1
@.str.2113 = private unnamed_addr constant [74 x i8] c"Client-to-Server key must be a hexadecimal string representing 16 or 16*2\00", align 1

; Function Attrs: null_pointer_is_valid sspstrong uwtable
define internal zeroext i1 @seskey_list_update_cb(ptr noundef %0, ptr noundef %1) #0 {
  %3 = alloca i1, align 1
  %4 = alloca ptr, align 8
  %5 = alloca ptr, align 8
  %6 = alloca ptr, align 8
  %7 = alloca i8, align 1
  %8 = alloca i8, align 1
  %9 = alloca i8, align 1
  %10 = alloca i32, align 4
  store ptr %0, ptr %4, align 8
  store ptr %1, ptr %5, align 8
  call void @llvm.lifetime.start.p0(i64 8, ptr %6) #13
  %11 = load ptr, ptr %4, align 8
  store ptr %11, ptr %6, align 8
  call void @llvm.lifetime.start.p0(i64 1, ptr %7) #13
  %12 = load ptr, ptr %6, align 8
  %13 = getelementptr inbounds nuw %struct._smb2_seskey_field_t, ptr %12, i32 0, i32 3
  %14 = load i32, ptr %13, align 8
  %15 = icmp ne i32 %14, 0
  %16 = zext i1 %15 to i8
  store i8 %16, ptr %7, align 1
  call void @llvm.lifetime.start.p0(i64 1, ptr %8) #13
  %17 = load ptr, ptr %6, align 8
  %18 = getelementptr inbounds nuw %struct._smb2_seskey_field_t, ptr %17, i32 0, i32 5
  %19 = load i32, ptr %18, align 8
  %20 = icmp ne i32 %19, 0
  %21 = zext i1 %20 to i8
  store i8 %21, ptr %8, align 1
  call void @llvm.lifetime.start.p0(i64 1, ptr %9) #13
  %22 = load ptr, ptr %6, align 8
  %23 = getelementptr inbounds nuw %struct._smb2_seskey_field_t, ptr %22, i32 0, i32 7
  %24 = load i32, ptr %23, align 8
  %25 = icmp ne i32 %24, 0
  %26 = zext i1 %25 to i8
  store i8 %26, ptr %9, align 1
  %27 = load ptr, ptr %5, align 8
  store ptr null, ptr %27, align 8
  %28 = load ptr, ptr %6, align 8
  %29 = getelementptr inbounds nuw %struct._smb2_seskey_field_t, ptr %28, i32 0, i32 1
  %30 = load i32, ptr %29, align 8
  %31 = icmp ne i32 %30, 8
  br i1 %31, label %32, label %35

32:                                               ; preds = %2
  %33 = call noalias ptr @g_strdup(ptr noundef @.str.2109)
  %34 = load ptr, ptr %5, align 8
  store ptr %33, ptr %34, align 8
  store i1 false, ptr %3, align 1
  store i32 1, ptr %10, align 4
  br label %88

35:                                               ; preds = %2
  %36 = load i8, ptr %7, align 1, !range !6, !noundef !7
  %37 = trunc i8 %36 to i1
  br i1 %37, label %47, label %38

38:                                               ; preds = %35
  %39 = load i8, ptr %9, align 1, !range !6, !noundef !7
  %40 = trunc i8 %39 to i1
  br i1 %40, label %47, label %41

41:                                               ; preds = %38
  %42 = load i8, ptr %8, align 1, !range !6, !noundef !7
  %43 = trunc i8 %42 to i1
  br i1 %43, label %47, label %44

44:                                               ; preds = %41
  %45 = call noalias ptr @g_strdup(ptr noundef @.str.2110)
  %46 = load ptr, ptr %5, align 8
  store ptr %45, ptr %46, align 8
  store i1 false, ptr %3, align 1
  store i32 1, ptr %10, align 4
  br label %88

47:                                               ; preds = %41, %38, %35
  %48 = load ptr, ptr %6, align 8
  %49 = getelementptr inbounds nuw %struct._smb2_seskey_field_t, ptr %48, i32 0, i32 3
  %50 = load i32, ptr %49, align 8
  %51 = icmp ugt i32 %50, 16
  br i1 %51, label %52, label %55

52:                                               ; preds = %47
  %53 = call noalias ptr @g_strdup(ptr noundef @.str.2111)
  %54 = load ptr, ptr %5, align 8
  store ptr %53, ptr %54, align 8
  store i1 false, ptr %3, align 1
  store i32 1, ptr %10, align 4
  br label %88

55:                                               ; preds = %47
  %56 = load i8, ptr %8, align 1, !range !6, !noundef !7
  %57 = trunc i8 %56 to i1
  br i1 %57, label %58, label %71

58:                                               ; preds = %55
  %59 = load ptr, ptr %6, align 8
  %60 = getelementptr inbounds nuw %struct._smb2_seskey_field_t, ptr %59, i32 0, i32 5
  %61 = load i32, ptr %60, align 8
  %62 = icmp ne i32 %61, 16
  br i1 %62, label %63, label %71

63:                                               ; preds = %58
  %64 = load ptr, ptr %6, align 8
  %65 = getelementptr inbounds nuw %struct._smb2_seskey_field_t, ptr %64, i32 0, i32 5
  %66 = load i32, ptr %65, align 8
  %67 = icmp ne i32 %66, 32
  br i1 %67, label %68, label %71

68:                                               ; preds = %63
  %69 = call noalias ptr @g_strdup(ptr noundef @.str.2112)
  %70 = load ptr, ptr %5, align 8
  store ptr %69, ptr %70, align 8
  store i1 false, ptr %3, align 1
  store i32 1, ptr %10, align 4
  br label %88

71:                                               ; preds = %63, %58, %55
  %72 = load i8, ptr %9, align 1, !range !6, !noundef !7
  %73 = trunc i8 %72 to i1
  br i1 %73, label %74, label %87

74:                                               ; preds = %71
  %75 = load ptr, ptr %6, align 8
  %76 = getelementptr inbounds nuw %struct._smb2_seskey_field_t, ptr %75, i32 0, i32 7
  %77 = load i32, ptr %76, align 8
  %78 = icmp ne i32 %77, 16
  br i1 %78, label %79, label %87

79:                                               ; preds = %74
  %80 = load ptr, ptr %6, align 8
  %81 = getelementptr inbounds nuw %struct._smb2_seskey_field_t, ptr %80, i32 0, i32 7
  %82 = load i32, ptr %81, align 8
  %83 = icmp ne i32 %82, 32
  br i1 %83, label %84, label %87

84:                                               ; preds = %79
  %85 = call noalias ptr @g_strdup(ptr noundef @.str.2113)
  %86 = load ptr, ptr %5, align 8
  store ptr %85, ptr %86, align 8
  store i1 false, ptr %3, align 1
  store i32 1, ptr %10, align 4
  br label %88

87:                                               ; preds = %79, %74, %71
  store i1 true, ptr %3, align 1
  store i32 1, ptr %10, align 4
  br label %88

88:                                               ; preds = %87, %84, %68, %52, %44, %32
  call void @llvm.lifetime.end.p0(i64 1, ptr %9) #13
  call void @llvm.lifetime.end.p0(i64 1, ptr %8) #13
  call void @llvm.lifetime.end.p0(i64 1, ptr %7) #13
  call void @llvm.lifetime.end.p0(i64 8, ptr %6) #13
  %89 = load i1, ptr %3, align 1
  ret i1 %89
}