; Function Attrs: null_pointer_is_valid sspstrong uwtable
define internal noundef zeroext i1 @seskey_list_update_cb(ptr noundef readonly captures(none) %0, ptr noundef writeonly captures(none) initializes((0, 8)) %1) #0 {
  %3 = getelementptr inbounds nuw i8, ptr %0, i64 24
  %4 = load i32, ptr %3, align 8
  %5 = getelementptr inbounds nuw i8, ptr %0, i64 40
  %6 = load i32, ptr %5, align 8
  %.not23 = icmp ne i32 %6, 0
  %7 = getelementptr inbounds nuw i8, ptr %0, i64 56
  %8 = load i32, ptr %7, align 8
  %.not24 = icmp ne i32 %8, 0
  store ptr null, ptr %1, align 8
  %9 = getelementptr inbounds nuw i8, ptr %0, i64 8
  %10 = load i32, ptr %9, align 8
  %.not25 = icmp eq i32 %10, 8
  br i1 %.not25, label %11, label %.sink.split

11:                                               ; preds = %2
  %.not = icmp ne i32 %4, 0
  %brmerge = select i1 %.not, i1 true, i1 %.not24
  %brmerge30 = select i1 %brmerge, i1 true, i1 %.not23
  br i1 %brmerge30, label %12, label %.sink.split

12:                                               ; preds = %11
  %13 = load i32, ptr %3, align 8
  %14 = icmp ugt i32 %13, 16
  br i1 %14, label %.sink.split, label %15

15:                                               ; preds = %12
  br i1 %.not23, label %16, label %18

16:                                               ; preds = %15
  %17 = load i32, ptr %5, align 8
  switch i32 %17, label %.sink.split [
    i32 16, label %18
    i32 32, label %18
  ]

18:                                               ; preds = %16, %16, %15
  br i1 %.not24, label %19, label %22

19:                                               ; preds = %18
  %20 = load i32, ptr %7, align 8
  switch i32 %20, label %.sink.split [
    i32 16, label %22
    i32 32, label %22
  ]

.sink.split:                                      ; preds = %19, %16, %12, %11, %2
  %.str.2113.sink = phi ptr [ @.str.2109, %2 ], [ @.str.2110, %11 ], [ @.str.2111, %12 ], [ @.str.2112, %16 ], [ @.str.2113, %19 ]
  %21 = tail call noalias ptr @g_strdup(ptr noundef nonnull %.str.2113.sink)
  store ptr %21, ptr %1, align 8
  br label %22

22:                                               ; preds = %.sink.split, %18, %19, %19
  %.0 = phi i1 [ true, %19 ], [ true, %19 ], [ true, %18 ], [ false, %.sink.split ]
  ret i1 %.0
}